target datalayout = "e-m:e-p270:32:32-p271:32:32-p272:64:64-i64:64-i128:128-f80:128-n8:16:32:64-S128"
target triple = "x86_64-pc-linux-gnu"

%struct.numeric = type { i32, i32, i32, i32, i32, ptr, ptr }

; Function Attrs: nounwind uwtable
define internal i32 @alloc_var(ptr noundef %0, i32 noundef %1) #0 {
  %3 = alloca i32, align 4
  %4 = alloca ptr, align 8
  %5 = alloca i32, align 4
  store ptr %0, ptr %4, align 8
  store i32 %1, ptr %5, align 4
  %6 = load ptr, ptr %4, align 8
  %7 = getelementptr inbounds nuw %struct.numeric, ptr %6, i32 0, i32 5
  %8 = load ptr, ptr %7, align 8
  call void @free(ptr noundef %8) #8
  %9 = load i32, ptr %5, align 4
  %10 = add i32 %9, 1
  %11 = sext i32 %10 to i64
  %12 = call ptr @pgtypes_alloc(i64 noundef %11)
  %13 = load ptr, ptr %4, align 8
  %14 = getelementptr inbounds nuw %struct.numeric, ptr %13, i32 0, i32 5
  store ptr %12, ptr %14, align 8
  %15 = load ptr, ptr %4, align 8
  %16 = getelementptr inbounds nuw %struct.numeric, ptr %15, i32 0, i32 5
  %17 = load ptr, ptr %16, align 8
  %18 = icmp eq ptr %17, null
  br i1 %18, label %19, label %20

19:                                               ; preds = %2
  store i32 -1, ptr %3, align 4
  br label %34

20:                                               ; preds = %2
  %21 = load ptr, ptr %4, align 8
  %22 = getelementptr inbounds nuw %struct.numeric, ptr %21, i32 0, i32 5
  %23 = load ptr, ptr %22, align 8
  %24 = getelementptr inbounds i8, ptr %23, i64 0
  store i8 0, ptr %24, align 1
  %25 = load ptr, ptr %4, align 8
  %26 = getelementptr inbounds nuw %struct.numeric, ptr %25, i32 0, i32 5
  %27 = load ptr, ptr %26, align 8
  %28 = getelementptr inbounds i8, ptr %27, i64 1
  %29 = load ptr, ptr %4, align 8
  %30 = getelementptr inbounds nuw %struct.numeric, ptr %29, i32 0, i32 6
  store ptr %28, ptr %30, align 8
  %31 = load i32, ptr %5, align 4
  %32 = load ptr, ptr %4, align 8
  %33 = getelementptr inbounds nuw %struct.numeric, ptr %32, i32 0, i32 0
  store i32 %31, ptr %33, align 8
  store i32 0, ptr %3, align 4
  br label %34

34:                                               ; preds = %20, %19
  %35 = load i32, ptr %3, align 4
  ret i32 %35
}

; Function Attrs: nounwind uwtable
define i32 @PGTYPESnumeric_from_long(i64 noundef %0, ptr noundef %1) #0 {
  %3 = alloca i32, align 4
  %4 = alloca i64, align 8
  %5 = alloca ptr, align 8
  %6 = alloca i32, align 4
  %7 = alloca i32, align 4
  %8 = alloca i64, align 8
  %9 = alloca i64, align 8
  %10 = alloca i64, align 8
  %11 = alloca i32, align 4
  store i64 %0, ptr %4, align 8
  store ptr %1, ptr %5, align 8
  call void @llvm.lifetime.start.p0(i64 4, ptr %6) #8
  store i32 0, ptr %6, align 4
  call void @llvm.lifetime.start.p0(i64 4, ptr %7) #8
  call void @llvm.lifetime.start.p0(i64 8, ptr %8) #8
  %12 = load i64, ptr %4, align 8
  store i64 %12, ptr %8, align 8
  call void @llvm.lifetime.start.p0(i64 8, ptr %9) #8
  call void @llvm.lifetime.start.p0(i64 8, ptr %10) #8
  %13 = load i64, ptr %8, align 8
  %14 = icmp slt i64 %13, 0
  br i1 %14, label %15, label %20

15:                                               ; preds = %2
  %16 = load i64, ptr %8, align 8
  %17 = mul i64 %16, -1
  store i64 %17, ptr %8, align 8
  %18 = load ptr, ptr %5, align 8
  %19 = getelementptr inbounds nuw %struct.numeric, ptr %18, i32 0, i32 4
  store i32 16384, ptr %19, align 8
  br label %23

20:                                               ; preds = %2
  %21 = load ptr, ptr %5, align 8
  %22 = getelementptr inbounds nuw %struct.numeric, ptr %21, i32 0, i32 4
  store i32 0, ptr %22, align 8
  br label %23

23:                                               ; preds = %20, %15
  store i64 1, ptr %10, align 8
  br label %24

24:                                               ; preds = %37, %23
  %25 = load i32, ptr %6, align 4
  %26 = add i32 %25, 1
  store i32 %26, ptr %6, align 4
  %27 = load i64, ptr %10, align 8
  %28 = mul i64 %27, 10
  store i64 %28, ptr %10, align 8
  br label %29

29:                                               ; preds = %24
  %30 = load i64, ptr %10, align 8
  %31 = sub i64 %30, 1
  %32 = load i64, ptr %8, align 8
  %33 = icmp slt i64 %31, %32
  br i1 %33, label %34, label %37

34:                                               ; preds = %29
  %35 = load i64, ptr %10, align 8
  %36 = icmp sle i64 %35, 922337203685477580
  br label %37

37:                                               ; preds = %34, %29
  %38 = phi i1 [ false, %29 ], [ %36, %34 ]
  br i1 %38, label %24, label %39, !llvm.loop !41

39:                                               ; preds = %37
  %40 = load i64, ptr %10, align 8
  %41 = icmp sgt i64 %40, 922337203685477580
  br i1 %41, label %42, label %45

42:                                               ; preds = %39
  %43 = load i32, ptr %6, align 4
  %44 = add i32 %43, 2
  store i32 %44, ptr %6, align 4
  br label %50

45:                                               ; preds = %39
  %46 = load i32, ptr %6, align 4
  %47 = add i32 %46, 1
  store i32 %47, ptr %6, align 4
  %48 = load i64, ptr %10, align 8
  %49 = sdiv i64 %48, 10
  store i64 %49, ptr %10, align 8
  br label %50

50:                                               ; preds = %45, %42
  %51 = load ptr, ptr %5, align 8
  %52 = load i32, ptr %6, align 4
  %53 = call i32 @alloc_var(ptr noundef %51, i32 noundef %52)
  %54 = icmp slt i32 %53, 0
  br i1 %54, label %55, label %56

55:                                               ; preds = %50
  store i32 -1, ptr %3, align 4
  store i32 1, ptr %11, align 4
  br label %92

56:                                               ; preds = %50
  %57 = load ptr, ptr %5, align 8
  %58 = getelementptr inbounds nuw %struct.numeric, ptr %57, i32 0, i32 2
  store i32 1, ptr %58, align 8
  %59 = load ptr, ptr %5, align 8
  %60 = getelementptr inbounds nuw %struct.numeric, ptr %59, i32 0, i32 3
  store i32 1, ptr %60, align 4
  %61 = load i32, ptr %6, align 4
  %62 = sub i32 %61, 2
  %63 = load ptr, ptr %5, align 8
  %64 = getelementptr inbounds nuw %struct.numeric, ptr %63, i32 0, i32 1
  store i32 %62, ptr %64, align 4
  store i32 0, ptr %7, align 4
  br label %65

65:                                               ; preds = %88, %56
  %66 = load i64, ptr %8, align 8
  %67 = load i64, ptr %8, align 8
  %68 = load i64, ptr %10, align 8
  %69 = srem i64 %67, %68
  %70 = sub i64 %66, %69
  store i64 %70, ptr %9, align 8
  %71 = load i64, ptr %9, align 8
  %72 = load i64, ptr %10, align 8
  %73 = sdiv i64 %71, %72
  %74 = trunc i64 %73 to i8
  %75 = load ptr, ptr %5, align 8
  %76 = getelementptr inbounds nuw %struct.numeric, ptr %75, i32 0, i32 6
  %77 = load ptr, ptr %76, align 8
  %78 = load i32, ptr %7, align 4
  %79 = sext i32 %78 to i64
  %80 = getelementptr inbounds i8, ptr %77, i64 %79
  store i8 %74, ptr %80, align 1
  %81 = load i64, ptr %9, align 8
  %82 = load i64, ptr %8, align 8
  %83 = sub i64 %82, %81
  store i64 %83, ptr %8, align 8
  %84 = load i32, ptr %7, align 4
  %85 = add i32 %84, 1
  store i32 %85, ptr %7, align 4
  %86 = load i64, ptr %10, align 8
  %87 = sdiv i64 %86, 10
  store i64 %87, ptr %10, align 8
  br label %88

88:                                               ; preds = %65
  %89 = load i64, ptr %8, align 8
  %90 = icmp sgt i64 %89, 0
  br i1 %90, label %65, label %91, !llvm.loop !42

91:                                               ; preds = %88
  store i32 0, ptr %3, align 4
  store i32 1, ptr %11, align 4
  br label %92

92:                                               ; preds = %91, %55
  call void @llvm.lifetime.end.p0(i64 8, ptr %10) #8
  call void @llvm.lifetime.end.p0(i64 8, ptr %9) #8
  call void @llvm.lifetime.end.p0(i64 8, ptr %8) #8
  call void @llvm.lifetime.end.p0(i64 4, ptr %7) #8
  call void @llvm.lifetime.end.p0(i64 4, ptr %6) #8
  %93 = load i32, ptr %3, align 4
  ret i32 %93
}

; Function Attrs: nounwind uwtable
define i32 @PGTYPESnumeric_from_int(i32 noundef %0, ptr noundef %1) #0 {
  %3 = alloca i32, align 4
  %4 = alloca ptr, align 8
  %5 = alloca i64, align 8
  store i32 %0, ptr %3, align 4
  store ptr %1, ptr %4, align 8
  call void @llvm.lifetime.start.p0(i64 8, ptr %5) #8
  %6 = load i32, ptr %3, align 4
  %7 = sext i32 %6 to i64
  store i64 %7, ptr %5, align 8
  %8 = load i64, ptr %5, align 8
  %9 = load ptr, ptr %4, align 8
  %10 = call i32 @PGTYPESnumeric_from_long(i64 noundef %8, ptr noundef %9)
  call void @llvm.lifetime.end.p0(i64 8, ptr %5) #8
  ret i32 %10
}