; Function Attrs: nounwind uwtable
define range(i32 -1, 1) i32 @PGTYPESnumeric_from_int(i32 noundef %0, ptr noundef captures(none) initializes((16, 20)) %1) local_unnamed_addr #0 {
  %3 = sext i32 %0 to i64
  %4 = lshr i64 %3, 49
  %5 = trunc nuw nsw i64 %4 to i32
  %spec.select.i = and i32 %5, 16384
  %spec.select43.i = tail call i64 @llvm.abs.i64(i64 %3, i1 true)
  %6 = getelementptr inbounds nuw i8, ptr %1, i64 16
  store i32 %spec.select.i, ptr %6, align 8
  br label %7

7:                                                ; preds = %7, %2
  %.036.i = phi i32 [ 0, %2 ], [ %8, %7 ]
  %.0.i = phi i64 [ 1, %2 ], [ %9, %7 ]
  %8 = add nuw nsw i32 %.036.i, 1
  %9 = mul i64 %.0.i, 10
  %10 = add i64 %9, -1
  %11 = icmp slt i64 %10, %spec.select43.i
  %12 = icmp slt i64 %9, 922337203685477581
  %13 = and i1 %12, %11
  br i1 %13, label %7, label %14, !llvm.loop !38

14:                                               ; preds = %7
  %15 = icmp sgt i64 %9, 922337203685477580
  br i1 %15, label %16, label %18

16:                                               ; preds = %14
  %17 = add nuw i32 %.036.i, 3
  br label %21

18:                                               ; preds = %14
  %19 = add nuw i32 %.036.i, 2
  %20 = sdiv i64 %9, 10
  br label %21

21:                                               ; preds = %18, %16
  %.137.i = phi i32 [ %17, %16 ], [ %19, %18 ]
  %.1.i = phi i64 [ %9, %16 ], [ %20, %18 ]
  %22 = getelementptr inbounds nuw i8, ptr %1, i64 24
  %23 = load ptr, ptr %22, align 8
  tail call void @free(ptr noundef %23) #14
  %24 = add i32 %.137.i, 1
  %25 = sext i32 %24 to i64
  %26 = tail call ptr @pgtypes_alloc(i64 noundef %25) #14
  store ptr %26, ptr %22, align 8
  %27 = icmp eq ptr %26, null
  br i1 %27, label %PGTYPESnumeric_from_long.exit, label %28

28:                                               ; preds = %21
  store i8 0, ptr %26, align 1
  %29 = load ptr, ptr %22, align 8
  %30 = getelementptr inbounds nuw i8, ptr %29, i64 1
  %31 = getelementptr inbounds nuw i8, ptr %1, i64 32
  store ptr %30, ptr %31, align 8
  store i32 %.137.i, ptr %1, align 8
  %32 = getelementptr inbounds nuw i8, ptr %1, i64 8
  store i32 1, ptr %32, align 8
  %33 = getelementptr inbounds nuw i8, ptr %1, i64 12
  store i32 1, ptr %33, align 4
  %34 = add i32 %.137.i, -2
  %35 = getelementptr inbounds nuw i8, ptr %1, i64 4
  store i32 %34, ptr %35, align 4
  br label %36

36:                                               ; preds = %36, %28
  %.035.i = phi i32 [ 0, %28 ], [ %43, %36 ]
  %.134.i = phi i64 [ %spec.select43.i, %28 ], [ %37, %36 ]
  %.2.i = phi i64 [ %.1.i, %28 ], [ %44, %36 ]
  %37 = srem i64 %.134.i, %.2.i
  %38 = sdiv i64 %.134.i, %.2.i
  %39 = trunc i64 %38 to i8
  %40 = load ptr, ptr %31, align 8
  %41 = sext i32 %.035.i to i64
  %42 = getelementptr inbounds i8, ptr %40, i64 %41
  store i8 %39, ptr %42, align 1
  %43 = add i32 %.035.i, 1
  %44 = sdiv i64 %.2.i, 10
  %.not = icmp eq i64 %37, 0
  br i1 %.not, label %PGTYPESnumeric_from_long.exit, label %36, !llvm.loop !39

PGTYPESnumeric_from_long.exit:                    ; preds = %36, %21
  %.032.i = phi i32 [ -1, %21 ], [ 0, %36 ]
  ret i32 %.032.i
}